target datalayout = "e-m:e-p270:32:32-p271:32:32-p272:64:64-i64:64-i128:128-f80:128-n8:16:32:64-S128"
target triple = "x86_64-pc-linux-gnu"

%struct.UConverterSelector = type { ptr, ptr, i32, ptr, i32, i32, ptr, i8, i8 }

; Function Attrs: mustprogress uwtable
define void @ucnvsel_close_77(ptr noundef %0) #0 {
  %2 = alloca ptr, align 8
  store ptr %0, ptr %2, align 8, !tbaa !36
  %3 = load ptr, ptr %2, align 8, !tbaa !36
  %4 = icmp ne ptr %3, null
  br i1 %4, label %6, label %5

5:                                                ; preds = %1
  br label %37

6:                                                ; preds = %1
  %7 = load ptr, ptr %2, align 8, !tbaa !36
  %8 = getelementptr inbounds nuw %struct.UConverterSelector, ptr %7, i32 0, i32 8
  %9 = load i8, ptr %8, align 1, !tbaa !30
  %10 = icmp ne i8 %9, 0
  br i1 %10, label %11, label %17

11:                                               ; preds = %6
  %12 = load ptr, ptr %2, align 8, !tbaa !36
  %13 = getelementptr inbounds nuw %struct.UConverterSelector, ptr %12, i32 0, i32 3
  %14 = load ptr, ptr %13, align 8, !tbaa !18
  %15 = getelementptr inbounds ptr, ptr %14, i64 0
  %16 = load ptr, ptr %15, align 8, !tbaa !23
  call void @uprv_free_77(ptr noundef %16)
  br label %17

17:                                               ; preds = %11, %6
  %18 = load ptr, ptr %2, align 8, !tbaa !36
  %19 = getelementptr inbounds nuw %struct.UConverterSelector, ptr %18, i32 0, i32 3
  %20 = load ptr, ptr %19, align 8, !tbaa !18
  call void @uprv_free_77(ptr noundef %20)
  %21 = load ptr, ptr %2, align 8, !tbaa !36
  %22 = getelementptr inbounds nuw %struct.UConverterSelector, ptr %21, i32 0, i32 7
  %23 = load i8, ptr %22, align 8, !tbaa !52
  %24 = icmp ne i8 %23, 0
  br i1 %24, label %25, label %29

25:                                               ; preds = %17
  %26 = load ptr, ptr %2, align 8, !tbaa !36
  %27 = getelementptr inbounds nuw %struct.UConverterSelector, ptr %26, i32 0, i32 1
  %28 = load ptr, ptr %27, align 8, !tbaa !50
  call void @uprv_free_77(ptr noundef %28)
  br label %29

29:                                               ; preds = %25, %17
  %30 = load ptr, ptr %2, align 8, !tbaa !36
  %31 = getelementptr inbounds nuw %struct.UConverterSelector, ptr %30, i32 0, i32 0
  %32 = load ptr, ptr %31, align 8, !tbaa !49
  call void @utrie2_close_77(ptr noundef %32)
  %33 = load ptr, ptr %2, align 8, !tbaa !36
  %34 = getelementptr inbounds nuw %struct.UConverterSelector, ptr %33, i32 0, i32 6
  %35 = load ptr, ptr %34, align 8, !tbaa !53
  call void @uprv_free_77(ptr noundef %35)
  %36 = load ptr, ptr %2, align 8, !tbaa !36
  call void @uprv_free_77(ptr noundef %36)
  br label %37

37:                                               ; preds = %29, %5
  ret void
}