; Function Attrs: mustprogress uwtable
define void @ucnvsel_close_77(ptr noundef %0) local_unnamed_addr #0 {
  %.not = icmp eq ptr %0, null
  br i1 %.not, label %21, label %2

2:                                                ; preds = %1
  %3 = getelementptr inbounds nuw i8, ptr %0, i64 49
  %4 = load i8, ptr %3, align 1, !tbaa !25
  %.not9 = icmp eq i8 %4, 0
  br i1 %.not9, label %9, label %5

5:                                                ; preds = %2
  %6 = getelementptr inbounds nuw i8, ptr %0, i64 24
  %7 = load ptr, ptr %6, align 8, !tbaa !11
  %8 = load ptr, ptr %7, align 8, !tbaa !19
  tail call void @uprv_free_77(ptr noundef %8)
  br label %9

9:                                                ; preds = %5, %2
  %10 = getelementptr inbounds nuw i8, ptr %0, i64 24
  %11 = load ptr, ptr %10, align 8, !tbaa !11
  tail call void @uprv_free_77(ptr noundef %11)
  %12 = getelementptr inbounds nuw i8, ptr %0, i64 48
  %13 = load i8, ptr %12, align 8, !tbaa !36
  %.not10 = icmp eq i8 %13, 0
  br i1 %.not10, label %17, label %14

14:                                               ; preds = %9
  %15 = getelementptr inbounds nuw i8, ptr %0, i64 8
  %16 = load ptr, ptr %15, align 8, !tbaa !34
  tail call void @uprv_free_77(ptr noundef %16)
  br label %17

17:                                               ; preds = %14, %9
  %18 = load ptr, ptr %0, align 8, !tbaa !33
  tail call void @utrie2_close_77(ptr noundef %18)
  %19 = getelementptr inbounds nuw i8, ptr %0, i64 40
  %20 = load ptr, ptr %19, align 8, !tbaa !37
  tail call void @uprv_free_77(ptr noundef %20)
  tail call void @uprv_free_77(ptr noundef nonnull %0)
  br label %21

21:                                               ; preds = %1, %17
  ret void
}